; Function Attrs: mustprogress nofree norecurse nosync nounwind willreturn memory(none) uwtable
define dso_local noundef double @clamp_row_est(double noundef %0) local_unnamed_addr #0 {
  %2 = fcmp ogt double %0, 1.000000e+100
  %3 = fcmp uno double %0, 0.000000e+00
  %or.cond = or i1 %2, %3
  br i1 %or.cond, label %8, label %4

4:                                                ; preds = %1
  %5 = fcmp ugt double %0, 1.000000e+00
  br i1 %5, label %6, label %8

6:                                                ; preds = %4
  %7 = tail call double @llvm.rint.f64(double %0)
  br label %8

8:                                                ; preds = %4, %1, %6
  %.0 = phi double [ %7, %6 ], [ 1.000000e+100, %1 ], [ 1.000000e+00, %4 ]
  ret double %.0
}